; ModuleID = '9/671.c'
source_filename = "9/671.c"
target datalayout = "e-m:e-p270:32:32-p271:32:32-p272:64:64-i64:64-f80:128-n8:16:32:64-S128"
target triple = "x86_64-pc-linux-gnu"

%struct.p = type { [11 x i8], i32 }

@.str = private unnamed_addr constant [4 x i8] c"%d\0A\00", align 1
@.str.1 = private unnamed_addr constant [6 x i8] c"%s %d\00", align 1
@.str.2 = private unnamed_addr constant [4 x i8] c"%s\0A\00", align 1

; Function Attrs: noinline nounwind uwtable
define dso_local i32 @main() #0 {
  %1 = alloca i32, align 4
  %2 = alloca i32, align 4
  %3 = alloca i32, align 4
  %4 = alloca [101 x %struct.p], align 16
  store i32 0, i32* %1, align 4
  %5 = call i32 (i8*, ...) @__isoc99_scanf(i8* getelementptr inbounds ([4 x i8], [4 x i8]* @.str, i64 0, i64 0), i32* %2)
  store i32 0, i32* %3, align 4
  br label %6

6:                                                ; preds = %20, %0
  %7 = load i32, i32* %3, align 4
  %8 = load i32, i32* %2, align 4
  %9 = icmp slt i32 %7, %8
  br i1 %9, label %10, label %23

10:                                               ; preds = %6
  %11 = load i32, i32* %3, align 4
  %12 = sext i32 %11 to i64
  %13 = getelementptr inbounds [101 x %struct.p], [101 x %struct.p]* %4, i64 0, i64 %12
  %14 = getelementptr inbounds %struct.p, %struct.p* %13, i32 0, i32 0
  %15 = load i32, i32* %3, align 4
  %16 = sext i32 %15 to i64
  %17 = getelementptr inbounds [101 x %struct.p], [101 x %struct.p]* %4, i64 0, i64 %16
  %18 = getelementptr inbounds %struct.p, %struct.p* %17, i32 0, i32 1
  %19 = call i32 (i8*, ...) @__isoc99_scanf(i8* getelementptr inbounds ([6 x i8], [6 x i8]* @.str.1, i64 0, i64 0), [11 x i8]* %14, i32* %18)
  br label %20

20:                                               ; preds = %10
  %21 = load i32, i32* %3, align 4
  %22 = add nsw i32 %21, 1
  store i32 %22, i32* %3, align 4
  br label %6

23:                                               ; preds = %6
  %24 = load i32, i32* %2, align 4
  %25 = getelementptr inbounds [101 x %struct.p], [101 x %struct.p]* %4, i64 0, i64 0
  call void @sort(i32 %24, %struct.p* %25)
  ret i32 0
}

declare dso_local i32 @__isoc99_scanf(i8*, ...) #1

; Function Attrs: noinline nounwind uwtable
define dso_local void @sort(i32 %0, %struct.p* %1) #0 {
  %3 = alloca i32, align 4
  %4 = alloca %struct.p*, align 8
  %5 = alloca i32, align 4
  %6 = alloca i32, align 4
  store i32 %0, i32* %3, align 4
  store %struct.p* %1, %struct.p** %4, align 8
  store i32 0, i32* %6, align 4
  store i32 0, i32* %5, align 4
  br label %7

7:                                                ; preds = %28, %2
  %8 = load i32, i32* %5, align 4
  %9 = load i32, i32* %3, align 4
  %10 = icmp slt i32 %8, %9
  br i1 %10, label %11, label %31

11:                                               ; preds = %7
  %12 = load %struct.p*, %struct.p** %4, align 8
  %13 = load i32, i32* %5, align 4
  %14 = sext i32 %13 to i64
  %15 = getelementptr inbounds %struct.p, %struct.p* %12, i64 %14
  %16 = getelementptr inbounds %struct.p, %struct.p* %15, i32 0, i32 1
  %17 = load i32, i32* %16, align 4
  %18 = load i32, i32* %6, align 4
  %19 = icmp sgt i32 %17, %18
  br i1 %19, label %20, label %27

20:                                               ; preds = %11
  %21 = load %struct.p*, %struct.p** %4, align 8
  %22 = load i32, i32* %5, align 4
  %23 = sext i32 %22 to i64
  %24 = getelementptr inbounds %struct.p, %struct.p* %21, i64 %23
  %25 = getelementptr inbounds %struct.p, %struct.p* %24, i32 0, i32 1
  %26 = load i32, i32* %25, align 4
  store i32 %26, i32* %6, align 4
  br label %27

27:                                               ; preds = %20, %11
  br label %28

28:                                               ; preds = %27
  %29 = load i32, i32* %5, align 4
  %30 = add nsw i32 %29, 1
  store i32 %30, i32* %5, align 4
  br label %7

31:                                               ; preds = %7
  br label %32

32:                                               ; preds = %67, %31
  %33 = load i32, i32* %6, align 4
  %34 = icmp sgt i32 %33, 59
  br i1 %34, label %35, label %70

35:                                               ; preds = %32
  store i32 0, i32* %5, align 4
  br label %36

36:                                               ; preds = %63, %35
  %37 = load i32, i32* %5, align 4
  %38 = load i32, i32* %3, align 4
  %39 = icmp slt i32 %37, %38
  br i1 %39, label %40, label %66

40:                                               ; preds = %36
  %41 = load %struct.p*, %struct.p** %4, align 8
  %42 = load i32, i32* %5, align 4
  %43 = sext i32 %42 to i64
  %44 = getelementptr inbounds %struct.p, %struct.p* %41, i64 %43
  %45 = getelementptr inbounds %struct.p, %struct.p* %44, i32 0, i32 1
  %46 = load i32, i32* %45, align 4
  %47 = load i32, i32* %6, align 4
  %48 = icmp eq i32 %46, %47
  br i1 %48, label %49, label %62

49:                                               ; preds = %40
  %50 = load %struct.p*, %struct.p** %4, align 8
  %51 = load i32, i32* %5, align 4
  %52 = sext i32 %51 to i64
  %53 = getelementptr inbounds %struct.p, %struct.p* %50, i64 %52
  %54 = getelementptr inbounds %struct.p, %struct.p* %53, i32 0, i32 0
  %55 = getelementptr inbounds [11 x i8], [11 x i8]* %54, i64 0, i64 0
  %56 = call i32 (i8*, ...) @printf(i8* getelementptr inbounds ([4 x i8], [4 x i8]* @.str.2, i64 0, i64 0), i8* %55)
  %57 = load %struct.p*, %struct.p** %4, align 8
  %58 = load i32, i32* %5, align 4
  %59 = sext i32 %58 to i64
  %60 = getelementptr inbounds %struct.p, %struct.p* %57, i64 %59
  %61 = getelementptr inbounds %struct.p, %struct.p* %60, i32 0, i32 1
  store i32 0, i32* %61, align 4
  br label %62

62:                                               ; preds = %49, %40
  br label %63

63:                                               ; preds = %62
  %64 = load i32, i32* %5, align 4
  %65 = add nsw i32 %64, 1
  store i32 %65, i32* %5, align 4
  br label %36

66:                                               ; preds = %36
  br label %67

67:                                               ; preds = %66
  %68 = load i32, i32* %6, align 4
  %69 = add nsw i32 %68, -1
  store i32 %69, i32* %6, align 4
  br label %32

70:                                               ; preds = %32
  store i32 0, i32* %5, align 4
  br label %71

71:                                               ; preds = %92, %70
  %72 = load i32, i32* %5, align 4
  %73 = load i32, i32* %3, align 4
  %74 = icmp slt i32 %72, %73
  br i1 %74, label %75, label %95

75:                                               ; preds = %71
  %76 = load %struct.p*, %struct.p** %4, align 8
  %77 = load i32, i32* %5, align 4
  %78 = sext i32 %77 to i64
  %79 = getelementptr inbounds %struct.p, %struct.p* %76, i64 %78
  %80 = getelementptr inbounds %struct.p, %struct.p* %79, i32 0, i32 1
  %81 = load i32, i32* %80, align 4
  %82 = icmp ne i32 %81, 0
  br i1 %82, label %83, label %91

83:                                               ; preds = %75
  %84 = load %struct.p*, %struct.p** %4, align 8
  %85 = load i32, i32* %5, align 4
  %86 = sext i32 %85 to i64
  %87 = getelementptr inbounds %struct.p, %struct.p* %84, i64 %86
  %88 = getelementptr inbounds %struct.p, %struct.p* %87, i32 0, i32 0
  %89 = getelementptr inbounds [11 x i8], [11 x i8]* %88, i64 0, i64 0
  %90 = call i32 (i8*, ...) @printf(i8* getelementptr inbounds ([4 x i8], [4 x i8]* @.str.2, i64 0, i64 0), i8* %89)
  br label %91

91:                                               ; preds = %83, %75
  br label %92

92:                                               ; preds = %91
  %93 = load i32, i32* %5, align 4
  %94 = add nsw i32 %93, 1
  store i32 %94, i32* %5, align 4
  br label %71

95:                                               ; preds = %71
  ret void
}

declare dso_local i32 @printf(i8*, ...) #1


!llvm.module.flags = !{!0}
!llvm.ident = !{!1}

!0 = !{i32 1, !"wchar_size", i32 4}
!1 = !{!"clang version 10.0.0-4ubuntu1 "}
